target datalayout = "e-m:e-p270:32:32-p271:32:32-p272:64:64-i64:64-i128:128-f80:128-n8:16:32:64-S128"
target triple = "x86_64-pc-linux-gnu"

%struct.PQExpBufferData = type { ptr, i64, i64 }

@.str.80 = private unnamed_addr constant [3 x i8] c"%s\00", align 1
@OPF = internal global ptr null, align 8
@server_version = internal global i32 0, align 4
@.str.120 = private unnamed_addr constant [1 x i8] zeroinitializer, align 1
@.str.186 = private unnamed_addr constant [3 x i8] c"\0A\0A\00", align 1
@.str.259 = private unnamed_addr constant [157 x i8] c"SELECT parname, pg_catalog.pg_get_userbyid(10) AS parowner, paracl, pg_catalog.acldefault('p', 10) AS acldefault FROM pg_catalog.pg_parameter_acl ORDER BY 1\00", align 1
@.str.260 = private unnamed_addr constant [55 x i8] c"--\0A-- Role privileges on configuration parameters\0A--\0A\0A\00", align 1
@.str.261 = private unnamed_addr constant [10 x i8] c"PARAMETER\00", align 1
@.str.262 = private unnamed_addr constant [49 x i8] c"could not parse ACL list (%s) for parameter \22%s\22\00", align 1

; Function Attrs: nounwind uwtable
define internal void @dumpRoleGUCPrivs(ptr noundef %0) #0 {
  %2 = alloca ptr, align 8
  %3 = alloca ptr, align 8
  %4 = alloca i32, align 4
  %5 = alloca ptr, align 8
  %6 = alloca ptr, align 8
  %7 = alloca ptr, align 8
  %8 = alloca ptr, align 8
  %9 = alloca ptr, align 8
  %10 = alloca ptr, align 8
  store ptr %0, ptr %2, align 8
  call void @llvm.lifetime.start.p0(i64 8, ptr %3) #11
  call void @llvm.lifetime.start.p0(i64 4, ptr %4) #11
  %11 = load ptr, ptr %2, align 8
  %12 = call ptr @executeQuery(ptr noundef %11, ptr noundef @.str.259)
  store ptr %12, ptr %3, align 8
  %13 = load ptr, ptr %3, align 8
  %14 = call i32 @PQntuples(ptr noundef %13)
  %15 = icmp sgt i32 %14, 0
  br i1 %15, label %16, label %19

16:                                               ; preds = %1
  %17 = load ptr, ptr @OPF, align 8
  %18 = call i32 (ptr, ptr, ...) @pg_fprintf(ptr noundef %17, ptr noundef @.str.260)
  br label %19

19:                                               ; preds = %16, %1
  store i32 0, ptr %4, align 4
  br label %20

20:                                               ; preds = %61, %19
  %21 = load i32, ptr %4, align 4
  %22 = load ptr, ptr %3, align 8
  %23 = call i32 @PQntuples(ptr noundef %22)
  %24 = icmp slt i32 %21, %23
  br i1 %24, label %25, label %64

25:                                               ; preds = %20
  call void @llvm.lifetime.start.p0(i64 8, ptr %5) #11
  %26 = call ptr @createPQExpBuffer()
  store ptr %26, ptr %5, align 8
  call void @llvm.lifetime.start.p0(i64 8, ptr %6) #11
  %27 = load ptr, ptr %3, align 8
  %28 = load i32, ptr %4, align 4
  %29 = call ptr @PQgetvalue(ptr noundef %27, i32 noundef %28, i32 noundef 0)
  store ptr %29, ptr %6, align 8
  call void @llvm.lifetime.start.p0(i64 8, ptr %7) #11
  %30 = load ptr, ptr %3, align 8
  %31 = load i32, ptr %4, align 4
  %32 = call ptr @PQgetvalue(ptr noundef %30, i32 noundef %31, i32 noundef 1)
  store ptr %32, ptr %7, align 8
  call void @llvm.lifetime.start.p0(i64 8, ptr %8) #11
  %33 = load ptr, ptr %3, align 8
  %34 = load i32, ptr %4, align 4
  %35 = call ptr @PQgetvalue(ptr noundef %33, i32 noundef %34, i32 noundef 2)
  store ptr %35, ptr %8, align 8
  call void @llvm.lifetime.start.p0(i64 8, ptr %9) #11
  %36 = load ptr, ptr %3, align 8
  %37 = load i32, ptr %4, align 4
  %38 = call ptr @PQgetvalue(ptr noundef %36, i32 noundef %37, i32 noundef 3)
  store ptr %38, ptr %9, align 8
  call void @llvm.lifetime.start.p0(i64 8, ptr %10) #11
  %39 = load ptr, ptr %6, align 8
  %40 = call ptr @fmtId(ptr noundef %39)
  %41 = call ptr @pg_strdup(ptr noundef %40)
  store ptr %41, ptr %10, align 8
  %42 = load ptr, ptr %10, align 8
  %43 = load ptr, ptr %8, align 8
  %44 = load ptr, ptr %9, align 8
  %45 = load ptr, ptr %7, align 8
  %46 = load i32, ptr @server_version, align 4
  %47 = load ptr, ptr %5, align 8
  %48 = call zeroext i1 @buildACLCommands(ptr noundef %42, ptr noundef null, ptr noundef null, ptr noundef @.str.261, ptr noundef %43, ptr noundef %44, ptr noundef %45, ptr noundef @.str.120, i32 noundef %46, ptr noundef %47)
  br i1 %48, label %53, label %49

49:                                               ; preds = %25
  %50 = load ptr, ptr %8, align 8
  %51 = load ptr, ptr %6, align 8
  call void (i32, i32, ptr, ...) @pg_log_generic(i32 noundef 4, i32 noundef 0, ptr noundef @.str.262, ptr noundef %50, ptr noundef %51)
  %52 = load ptr, ptr %2, align 8
  call void @PQfinish(ptr noundef %52)
  call void @exit(i32 noundef 1) #13
  unreachable

53:                                               ; preds = %25
  %54 = load ptr, ptr @OPF, align 8
  %55 = load ptr, ptr %5, align 8
  %56 = getelementptr inbounds nuw %struct.PQExpBufferData, ptr %55, i32 0, i32 0
  %57 = load ptr, ptr %56, align 8
  %58 = call i32 (ptr, ptr, ...) @pg_fprintf(ptr noundef %54, ptr noundef @.str.80, ptr noundef %57)
  %59 = load ptr, ptr %10, align 8
  call void @free(ptr noundef %59) #11
  %60 = load ptr, ptr %5, align 8
  call void @destroyPQExpBuffer(ptr noundef %60)
  call void @llvm.lifetime.end.p0(i64 8, ptr %10) #11
  call void @llvm.lifetime.end.p0(i64 8, ptr %9) #11
  call void @llvm.lifetime.end.p0(i64 8, ptr %8) #11
  call void @llvm.lifetime.end.p0(i64 8, ptr %7) #11
  call void @llvm.lifetime.end.p0(i64 8, ptr %6) #11
  call void @llvm.lifetime.end.p0(i64 8, ptr %5) #11
  br label %61

61:                                               ; preds = %53
  %62 = load i32, ptr %4, align 4
  %63 = add i32 %62, 1
  store i32 %63, ptr %4, align 4
  br label %20, !llvm.loop !23

64:                                               ; preds = %20
  %65 = load ptr, ptr %3, align 8
  call void @PQclear(ptr noundef %65)
  %66 = load ptr, ptr @OPF, align 8
  %67 = call i32 (ptr, ptr, ...) @pg_fprintf(ptr noundef %66, ptr noundef @.str.186)
  call void @llvm.lifetime.end.p0(i64 4, ptr %4) #11
  call void @llvm.lifetime.end.p0(i64 8, ptr %3) #11
  ret void
}