; Function Attrs: nounwind uwtable
define internal fastcc void @dumpRoleGUCPrivs(ptr noundef nonnull %0) unnamed_addr #4 {
  %2 = tail call fastcc ptr @executeQuery(ptr noundef %0, ptr noundef nonnull @.str.259)
  %3 = tail call i32 @PQntuples(ptr noundef nonnull %2) #15
  %4 = icmp sgt i32 %3, 0
  br i1 %4, label %5, label %8

5:                                                ; preds = %1
  %6 = load ptr, ptr @OPF, align 8
  %7 = tail call i32 (ptr, ptr, ...) @pg_fprintf(ptr noundef %6, ptr noundef nonnull @.str.260) #15
  br label %8

8:                                                ; preds = %5, %1
  %9 = tail call i32 @PQntuples(ptr noundef nonnull %2) #15
  %10 = icmp sgt i32 %9, 0
  br i1 %10, label %.lr.ph, label %._crit_edge

.lr.ph:                                           ; preds = %8, %21
  %.026 = phi i32 [ %25, %21 ], [ 0, %8 ]
  %11 = tail call ptr @createPQExpBuffer() #15
  %12 = tail call ptr @PQgetvalue(ptr noundef nonnull %2, i32 noundef %.026, i32 noundef 0) #15
  %13 = tail call ptr @PQgetvalue(ptr noundef nonnull %2, i32 noundef %.026, i32 noundef 1) #15
  %14 = tail call ptr @PQgetvalue(ptr noundef nonnull %2, i32 noundef %.026, i32 noundef 2) #15
  %15 = tail call ptr @PQgetvalue(ptr noundef nonnull %2, i32 noundef %.026, i32 noundef 3) #15
  %16 = tail call ptr @fmtId(ptr noundef %12) #15
  %17 = tail call ptr @pg_strdup(ptr noundef %16) #15
  %18 = load i32, ptr @server_version, align 4
  %19 = tail call zeroext i1 @buildACLCommands(ptr noundef %17, ptr noundef null, ptr noundef null, ptr noundef nonnull @.str.261, ptr noundef %14, ptr noundef %15, ptr noundef %13, ptr noundef nonnull @.str.120, i32 noundef %18, ptr noundef %11) #15
  br i1 %19, label %21, label %20

20:                                               ; preds = %.lr.ph
  tail call void (i32, i32, ptr, ...) @pg_log_generic(i32 noundef 4, i32 noundef 0, ptr noundef nonnull @.str.262, ptr noundef %14, ptr noundef %12) #15
  tail call void @PQfinish(ptr noundef nonnull %0) #15
  tail call void @exit(i32 noundef 1) #18
  unreachable

21:                                               ; preds = %.lr.ph
  %22 = load ptr, ptr @OPF, align 8
  %23 = load ptr, ptr %11, align 8
  %24 = tail call i32 (ptr, ptr, ...) @pg_fprintf(ptr noundef %22, ptr noundef nonnull @.str.80, ptr noundef %23) #15
  tail call void @free(ptr noundef %17) #15
  tail call void @destroyPQExpBuffer(ptr noundef nonnull %11) #15
  %25 = add nuw nsw i32 %.026, 1
  %26 = tail call i32 @PQntuples(ptr noundef nonnull %2) #15
  %27 = icmp slt i32 %25, %26
  br i1 %27, label %.lr.ph, label %._crit_edge, !llvm.loop !29

._crit_edge:                                      ; preds = %21, %8
  tail call void @PQclear(ptr noundef nonnull %2) #15
  %28 = load ptr, ptr @OPF, align 8
  %29 = tail call i32 (ptr, ptr, ...) @pg_fprintf(ptr noundef %28, ptr noundef nonnull @.str.186) #15
  ret void
}